target datalayout = "e-m:e-p270:32:32-p271:32:32-p272:64:64-i64:64-i128:128-f80:128-n8:16:32:64-S128"
target triple = "x86_64-pc-linux-gnu"

%struct.mbedtls_mpi = type { ptr, i16, i16 }

; Function Attrs: inlinehint nounwind uwtable
define internal i64 @mpi_sint_abs(i64 noundef %0) #2 {
  %2 = alloca i64, align 8
  %3 = alloca i64, align 8
  store i64 %0, ptr %3, align 8, !tbaa !15
  %4 = load i64, ptr %3, align 8, !tbaa !15
  %5 = icmp sge i64 %4, 0
  br i1 %5, label %6, label %8

6:                                                ; preds = %1
  %7 = load i64, ptr %3, align 8, !tbaa !15
  store i64 %7, ptr %2, align 8
  br label %11

8:                                                ; preds = %1
  %9 = load i64, ptr %3, align 8, !tbaa !15
  %10 = sub i64 0, %9
  store i64 %10, ptr %2, align 8
  br label %11

11:                                               ; preds = %8, %6
  %12 = load i64, ptr %2, align 8
  ret i64 %12
}

; Function Attrs: nounwind uwtable
define hidden i32 @mbedtls_mpi_div_int(ptr noundef %0, ptr noundef %1, ptr noundef %2, i64 noundef %3) #0 {
  %5 = alloca ptr, align 8
  %6 = alloca ptr, align 8
  %7 = alloca ptr, align 8
  %8 = alloca i64, align 8
  %9 = alloca %struct.mbedtls_mpi, align 8
  %10 = alloca [1 x i64], align 8
  store ptr %0, ptr %5, align 8, !tbaa !3
  store ptr %1, ptr %6, align 8, !tbaa !3
  store ptr %2, ptr %7, align 8, !tbaa !3
  store i64 %3, ptr %8, align 8, !tbaa !15
  call void @llvm.lifetime.start.p0(i64 16, ptr %9) #9
  call void @llvm.lifetime.start.p0(i64 8, ptr %10) #9
  %11 = load i64, ptr %8, align 8, !tbaa !15
  %12 = call i64 @mpi_sint_abs(i64 noundef %11)
  %13 = getelementptr inbounds [1 x i64], ptr %10, i64 0, i64 0
  store i64 %12, ptr %13, align 8, !tbaa !15
  %14 = load i64, ptr %8, align 8, !tbaa !15
  %15 = lshr i64 %14, 63
  %16 = mul nsw i64 %15, -2
  %17 = add nsw i64 %16, 1
  %18 = trunc i64 %17 to i16
  %19 = getelementptr inbounds nuw %struct.mbedtls_mpi, ptr %9, i32 0, i32 1
  store i16 %18, ptr %19, align 8, !tbaa !14
  %20 = getelementptr inbounds nuw %struct.mbedtls_mpi, ptr %9, i32 0, i32 2
  store i16 1, ptr %20, align 2, !tbaa !10
  %21 = getelementptr inbounds [1 x i64], ptr %10, i64 0, i64 0
  %22 = getelementptr inbounds nuw %struct.mbedtls_mpi, ptr %9, i32 0, i32 0
  store ptr %21, ptr %22, align 8, !tbaa !17
  %23 = load ptr, ptr %5, align 8, !tbaa !3
  %24 = load ptr, ptr %6, align 8, !tbaa !3
  %25 = load ptr, ptr %7, align 8, !tbaa !3
  %26 = call i32 @mbedtls_mpi_div_mpi(ptr noundef %23, ptr noundef %24, ptr noundef %25, ptr noundef %9)
  call void @llvm.lifetime.end.p0(i64 8, ptr %10) #9
  call void @llvm.lifetime.end.p0(i64 16, ptr %9) #9
  ret i32 %26
}