; Function Attrs: nounwind uwtable
define hidden range(i32 -16, 1) i32 @mbedtls_mpi_div_int(ptr noundef %0, ptr noundef %1, ptr noundef %2, i64 noundef %3) local_unnamed_addr #0 {
  %5 = alloca %struct.mbedtls_mpi, align 8
  %6 = alloca [1 x i64], align 8
  call void @llvm.lifetime.start.p0(i64 16, ptr nonnull %5) #16
  call void @llvm.lifetime.start.p0(i64 8, ptr nonnull %6) #16
  %.0.i = tail call noundef range(i64 0, -9223372036854775807) i64 @llvm.abs.i64(i64 %3, i1 false)
  store i64 %.0.i, ptr %6, align 8, !tbaa !17
  %7 = ashr i64 %3, 62
  %8 = trunc nsw i64 %7 to i16
  %9 = or i16 %8, 1
  %10 = getelementptr inbounds nuw i8, ptr %5, i64 8
  store i16 %9, ptr %10, align 8, !tbaa !10
  %11 = getelementptr inbounds nuw i8, ptr %5, i64 10
  store i16 1, ptr %11, align 2, !tbaa !3
  store ptr %6, ptr %5, align 8, !tbaa !12
  %12 = call i32 @mbedtls_mpi_div_mpi(ptr noundef %0, ptr noundef %1, ptr noundef %2, ptr noundef nonnull %5)
  call void @llvm.lifetime.end.p0(i64 8, ptr nonnull %6) #16
  call void @llvm.lifetime.end.p0(i64 16, ptr nonnull %5) #16
  ret i32 %12
}